target datalayout = "e-m:e-p270:32:32-p271:32:32-p272:64:64-i64:64-i128:128-f80:128-n8:16:32:64-S128"
target triple = "x86_64-pc-linux-gnu"

%struct.engine_st = type { ptr, ptr, ptr, ptr, ptr, ptr, ptr, ptr, ptr, ptr, ptr, ptr, ptr, ptr, ptr, ptr, ptr, ptr, ptr, i32, %struct.CRYPTO_REF_COUNT, i32, %struct.crypto_ex_data_st, ptr, ptr, ptr, ptr, ptr }
%struct.CRYPTO_REF_COUNT = type { i32 }
%struct.crypto_ex_data_st = type { ptr, ptr }

@.str = private unnamed_addr constant [36 x i8] c"../openssl/crypto/engine/eng_pkey.c\00", align 1
@global_engine_lock = external global ptr, align 8
@__func__.ENGINE_load_public_key = private unnamed_addr constant [23 x i8] c"ENGINE_load_public_key\00", align 1

; Function Attrs: nounwind uwtable
define ptr @ENGINE_load_public_key(ptr noundef %0, ptr noundef %1, ptr noundef %2, ptr noundef %3) #0 {
  %5 = alloca ptr, align 8
  %6 = alloca ptr, align 8
  %7 = alloca ptr, align 8
  %8 = alloca ptr, align 8
  %9 = alloca ptr, align 8
  %10 = alloca ptr, align 8
  %11 = alloca i32, align 4
  store ptr %0, ptr %6, align 8, !tbaa !3
  store ptr %1, ptr %7, align 8, !tbaa !25
  store ptr %2, ptr %8, align 8, !tbaa !26
  store ptr %3, ptr %9, align 8, !tbaa !8
  call void @llvm.lifetime.start.p0(i64 8, ptr %10) #3
  %12 = load ptr, ptr %6, align 8, !tbaa !3
  %13 = icmp eq ptr %12, null
  br i1 %13, label %14, label %15

14:                                               ; preds = %4
  call void @ERR_new()
  call void @ERR_set_debug(ptr noundef @.str, i32 noundef 91, ptr noundef @__func__.ENGINE_load_public_key)
  call void (i32, i32, ptr, ...) @ERR_set_error(i32 noundef 38, i32 noundef 786690, ptr noundef null)
  store ptr null, ptr %5, align 8
  store i32 1, ptr %11, align 4
  br label %50

15:                                               ; preds = %4
  %16 = load ptr, ptr @global_engine_lock, align 8, !tbaa !8
  %17 = call i32 @CRYPTO_THREAD_write_lock(ptr noundef %16)
  %18 = icmp ne i32 %17, 0
  br i1 %18, label %20, label %19

19:                                               ; preds = %15
  store ptr null, ptr %5, align 8
  store i32 1, ptr %11, align 4
  br label %50

20:                                               ; preds = %15
  %21 = load ptr, ptr %6, align 8, !tbaa !3
  %22 = getelementptr inbounds nuw %struct.engine_st, ptr %21, i32 0, i32 21
  %23 = load i32, ptr %22, align 8, !tbaa !28
  %24 = icmp eq i32 %23, 0
  br i1 %24, label %25, label %28

25:                                               ; preds = %20
  %26 = load ptr, ptr @global_engine_lock, align 8, !tbaa !8
  %27 = call i32 @CRYPTO_THREAD_unlock(ptr noundef %26)
  call void @ERR_new()
  call void @ERR_set_debug(ptr noundef @.str, i32 noundef 98, ptr noundef @__func__.ENGINE_load_public_key)
  call void (i32, i32, ptr, ...) @ERR_set_error(i32 noundef 38, i32 noundef 117, ptr noundef null)
  store ptr null, ptr %5, align 8
  store i32 1, ptr %11, align 4
  br label %50

28:                                               ; preds = %20
  %29 = load ptr, ptr @global_engine_lock, align 8, !tbaa !8
  %30 = call i32 @CRYPTO_THREAD_unlock(ptr noundef %29)
  %31 = load ptr, ptr %6, align 8, !tbaa !3
  %32 = getelementptr inbounds nuw %struct.engine_st, ptr %31, i32 0, i32 16
  %33 = load ptr, ptr %32, align 8, !tbaa !23
  %34 = icmp ne ptr %33, null
  br i1 %34, label %36, label %35

35:                                               ; preds = %28
  call void @ERR_new()
  call void @ERR_set_debug(ptr noundef @.str, i32 noundef 103, ptr noundef @__func__.ENGINE_load_public_key)
  call void (i32, i32, ptr, ...) @ERR_set_error(i32 noundef 38, i32 noundef 125, ptr noundef null)
  store ptr null, ptr %5, align 8
  store i32 1, ptr %11, align 4
  br label %50

36:                                               ; preds = %28
  %37 = load ptr, ptr %6, align 8, !tbaa !3
  %38 = getelementptr inbounds nuw %struct.engine_st, ptr %37, i32 0, i32 16
  %39 = load ptr, ptr %38, align 8, !tbaa !23
  %40 = load ptr, ptr %6, align 8, !tbaa !3
  %41 = load ptr, ptr %7, align 8, !tbaa !25
  %42 = load ptr, ptr %8, align 8, !tbaa !26
  %43 = load ptr, ptr %9, align 8, !tbaa !8
  %44 = call ptr %39(ptr noundef %40, ptr noundef %41, ptr noundef %42, ptr noundef %43)
  store ptr %44, ptr %10, align 8, !tbaa !29
  %45 = load ptr, ptr %10, align 8, !tbaa !29
  %46 = icmp eq ptr %45, null
  br i1 %46, label %47, label %48

47:                                               ; preds = %36
  call void @ERR_new()
  call void @ERR_set_debug(ptr noundef @.str, i32 noundef 108, ptr noundef @__func__.ENGINE_load_public_key)
  call void (i32, i32, ptr, ...) @ERR_set_error(i32 noundef 38, i32 noundef 129, ptr noundef null)
  store ptr null, ptr %5, align 8
  store i32 1, ptr %11, align 4
  br label %50

48:                                               ; preds = %36
  %49 = load ptr, ptr %10, align 8, !tbaa !29
  store ptr %49, ptr %5, align 8
  store i32 1, ptr %11, align 4
  br label %50

50:                                               ; preds = %48, %47, %35, %25, %19, %14
  call void @llvm.lifetime.end.p0(i64 8, ptr %10) #3
  %51 = load ptr, ptr %5, align 8
  ret ptr %51
}