; Function Attrs: nounwind uwtable
define ptr @ENGINE_load_public_key(ptr noundef %0, ptr noundef %1, ptr noundef %2, ptr noundef %3) local_unnamed_addr #2 {
  %5 = icmp eq ptr %0, null
  br i1 %5, label %.sink.split, label %6

6:                                                ; preds = %4
  %7 = load ptr, ptr @global_engine_lock, align 8, !tbaa !23
  %8 = tail call i32 @CRYPTO_THREAD_write_lock(ptr noundef %7) #4
  %.not = icmp eq i32 %8, 0
  br i1 %.not, label %21, label %9

9:                                                ; preds = %6
  %10 = getelementptr inbounds nuw i8, ptr %0, i64 160
  %11 = load i32, ptr %10, align 8, !tbaa !24
  %12 = icmp eq i32 %11, 0
  %13 = load ptr, ptr @global_engine_lock, align 8, !tbaa !23
  %14 = tail call i32 @CRYPTO_THREAD_unlock(ptr noundef %13) #4
  br i1 %12, label %.sink.split, label %15

15:                                               ; preds = %9
  %16 = getelementptr inbounds nuw i8, ptr %0, i64 128
  %17 = load ptr, ptr %16, align 8, !tbaa !21
  %.not14 = icmp eq ptr %17, null
  br i1 %.not14, label %.sink.split, label %18

18:                                               ; preds = %15
  %19 = tail call ptr %17(ptr noundef nonnull %0, ptr noundef %1, ptr noundef %2, ptr noundef %3) #4
  %20 = icmp eq ptr %19, null
  br i1 %20, label %.sink.split, label %21

.sink.split:                                      ; preds = %18, %15, %9, %4
  %.sink15 = phi i32 [ 91, %4 ], [ 98, %9 ], [ 103, %15 ], [ 108, %18 ]
  %.sink = phi i32 [ 786690, %4 ], [ 117, %9 ], [ 125, %15 ], [ 129, %18 ]
  tail call void @ERR_new() #4
  tail call void @ERR_set_debug(ptr noundef nonnull @.str, i32 noundef %.sink15, ptr noundef nonnull @__func__.ENGINE_load_public_key) #4
  tail call void (i32, i32, ptr, ...) @ERR_set_error(i32 noundef 38, i32 noundef %.sink, ptr noundef null) #4
  br label %21

21:                                               ; preds = %.sink.split, %18, %6
  %.0 = phi ptr [ null, %6 ], [ %19, %18 ], [ null, %.sink.split ]
  ret ptr %.0
}